target datalayout = "e-m:e-p270:32:32-p271:32:32-p272:64:64-i64:64-i128:128-f80:128-n8:16:32:64-S128"
target triple = "x86_64-pc-linux-gnu"

%struct.Wlc_Ntk_t_ = type { ptr, ptr, %struct.Vec_Int_t_, %struct.Vec_Int_t_, %struct.Vec_Int_t_, %struct.Vec_Int_t_, %struct.Vec_Int_t_, %struct.Vec_Int_t_, ptr, ptr, ptr, [60 x i32], [60 x i32], i32, i32, i32, i32, i32, ptr, i32, i32, ptr, ptr, ptr, ptr, ptr, %struct.Vec_Int_t_, %struct.Vec_Int_t_, i32, %struct.Vec_Int_t_, %struct.Vec_Int_t_, %struct.Vec_Int_t_, %struct.Vec_Int_t_, %struct.Vec_Int_t_, %struct.Vec_Int_t_ }
%struct.Vec_Int_t_ = type { i32, i32, ptr }
%struct.Wlc_Obj_t_ = type { i16, i32, i32, i32, %union.anon }
%union.anon = type { [1 x ptr] }

; Function Attrs: nounwind uwtable
define internal i32 @Wlc_ObjHasArray(ptr noundef %0) #0 {
  %2 = alloca ptr, align 8
  store ptr %0, ptr %2, align 8
  %3 = load ptr, ptr %2, align 8
  %4 = getelementptr inbounds %struct.Wlc_Obj_t_, ptr %3, i32 0, i32 1
  %5 = load i32, ptr %4, align 4
  %6 = icmp ugt i32 %5, 2
  br i1 %6, label %19, label %7

7:                                                ; preds = %1
  %8 = load ptr, ptr %2, align 8
  %9 = load i16, ptr %8, align 8
  %10 = and i16 %9, 63
  %11 = zext i16 %10 to i32
  %12 = icmp eq i32 %11, 6
  br i1 %12, label %19, label %13

13:                                               ; preds = %7
  %14 = load ptr, ptr %2, align 8
  %15 = load i16, ptr %14, align 8
  %16 = and i16 %15, 63
  %17 = zext i16 %16 to i32
  %18 = icmp eq i32 %17, 22
  br label %19

19:                                               ; preds = %13, %7, %1
  %20 = phi i1 [ true, %7 ], [ true, %1 ], [ %18, %13 ]
  %21 = zext i1 %20 to i32
  ret i32 %21
}

; Function Attrs: nounwind uwtable
define internal ptr @Wlc_ObjFanins(ptr noundef %0) #0 {
  %2 = alloca ptr, align 8
  store ptr %0, ptr %2, align 8
  %3 = load ptr, ptr %2, align 8
  %4 = call i32 @Wlc_ObjHasArray(ptr noundef %3)
  %5 = icmp ne i32 %4, 0
  br i1 %5, label %6, label %11

6:                                                ; preds = %1
  %7 = load ptr, ptr %2, align 8
  %8 = getelementptr inbounds %struct.Wlc_Obj_t_, ptr %7, i32 0, i32 4
  %9 = getelementptr inbounds [1 x ptr], ptr %8, i64 0, i64 0
  %10 = load ptr, ptr %9, align 8
  br label %15

11:                                               ; preds = %1
  %12 = load ptr, ptr %2, align 8
  %13 = getelementptr inbounds %struct.Wlc_Obj_t_, ptr %12, i32 0, i32 4
  %14 = getelementptr inbounds [2 x i32], ptr %13, i64 0, i64 0
  br label %15

15:                                               ; preds = %11, %6
  %16 = phi ptr [ %10, %6 ], [ %14, %11 ]
  ret ptr %16
}

; Function Attrs: nounwind uwtable
define internal ptr @Vec_IntAlloc(i32 noundef %0) #0 {
  %2 = alloca i32, align 4
  %3 = alloca ptr, align 8
  store i32 %0, ptr %2, align 4
  %4 = call noalias ptr @malloc(i64 noundef 16) #11
  store ptr %4, ptr %3, align 8
  %5 = load i32, ptr %2, align 4
  %6 = icmp sgt i32 %5, 0
  br i1 %6, label %7, label %11

7:                                                ; preds = %1
  %8 = load i32, ptr %2, align 4
  %9 = icmp slt i32 %8, 16
  br i1 %9, label %10, label %11

10:                                               ; preds = %7
  store i32 16, ptr %2, align 4
  br label %11

11:                                               ; preds = %10, %7, %1
  %12 = load ptr, ptr %3, align 8
  %13 = getelementptr inbounds %struct.Vec_Int_t_, ptr %12, i32 0, i32 1
  store i32 0, ptr %13, align 4
  %14 = load i32, ptr %2, align 4
  %15 = load ptr, ptr %3, align 8
  %16 = getelementptr inbounds %struct.Vec_Int_t_, ptr %15, i32 0, i32 0
  store i32 %14, ptr %16, align 8
  %17 = load ptr, ptr %3, align 8
  %18 = getelementptr inbounds %struct.Vec_Int_t_, ptr %17, i32 0, i32 0
  %19 = load i32, ptr %18, align 8
  %20 = icmp ne i32 %19, 0
  br i1 %20, label %21, label %28

21:                                               ; preds = %11
  %22 = load ptr, ptr %3, align 8
  %23 = getelementptr inbounds %struct.Vec_Int_t_, ptr %22, i32 0, i32 0
  %24 = load i32, ptr %23, align 8
  %25 = sext i32 %24 to i64
  %26 = mul i64 4, %25
  %27 = call noalias ptr @malloc(i64 noundef %26) #11
  br label %29

28:                                               ; preds = %11
  br label %29

29:                                               ; preds = %28, %21
  %30 = phi ptr [ %27, %21 ], [ null, %28 ]
  %31 = load ptr, ptr %3, align 8
  %32 = getelementptr inbounds %struct.Vec_Int_t_, ptr %31, i32 0, i32 2
  store ptr %30, ptr %32, align 8
  %33 = load ptr, ptr %3, align 8
  ret ptr %33
}

; Function Attrs: nounwind uwtable
define internal void @Vec_IntFree(ptr noundef %0) #0 {
  %2 = alloca ptr, align 8
  store ptr %0, ptr %2, align 8
  %3 = load ptr, ptr %2, align 8
  %4 = getelementptr inbounds %struct.Vec_Int_t_, ptr %3, i32 0, i32 2
  %5 = load ptr, ptr %4, align 8
  %6 = icmp ne ptr %5, null
  br i1 %6, label %7, label %13

7:                                                ; preds = %1
  %8 = load ptr, ptr %2, align 8
  %9 = getelementptr inbounds %struct.Vec_Int_t_, ptr %8, i32 0, i32 2
  %10 = load ptr, ptr %9, align 8
  call void @free(ptr noundef %10) #12
  %11 = load ptr, ptr %2, align 8
  %12 = getelementptr inbounds %struct.Vec_Int_t_, ptr %11, i32 0, i32 2
  store ptr null, ptr %12, align 8
  br label %14

13:                                               ; preds = %1
  br label %14

14:                                               ; preds = %13, %7
  %15 = load ptr, ptr %2, align 8
  %16 = icmp ne ptr %15, null
  br i1 %16, label %17, label %19

17:                                               ; preds = %14
  %18 = load ptr, ptr %2, align 8
  call void @free(ptr noundef %18) #12
  store ptr null, ptr %2, align 8
  br label %20

19:                                               ; preds = %14
  br label %20

20:                                               ; preds = %19, %17
  ret void
}

; Function Attrs: nounwind uwtable
define internal i32 @Wlc_ObjFaninId(ptr noundef %0, i32 noundef %1) #0 {
  %3 = alloca ptr, align 8
  %4 = alloca i32, align 4
  store ptr %0, ptr %3, align 8
  store i32 %1, ptr %4, align 4
  %5 = load ptr, ptr %3, align 8
  %6 = call ptr @Wlc_ObjFanins(ptr noundef %5)
  %7 = load i32, ptr %4, align 4
  %8 = sext i32 %7 to i64
  %9 = getelementptr inbounds i32, ptr %6, i64 %8
  %10 = load i32, ptr %9, align 4
  ret i32 %10
}

; Function Attrs: nounwind uwtable
define internal i32 @Wlc_ObjFaninNum(ptr noundef %0) #0 {
  %2 = alloca ptr, align 8
  store ptr %0, ptr %2, align 8
  %3 = load ptr, ptr %2, align 8
  %4 = getelementptr inbounds %struct.Wlc_Obj_t_, ptr %3, i32 0, i32 1
  %5 = load i32, ptr %4, align 4
  ret i32 %5
}

; Function Attrs: nounwind uwtable
define internal ptr @Wlc_NtkObj(ptr noundef %0, i32 noundef %1) #0 {
  %3 = alloca ptr, align 8
  %4 = alloca i32, align 4
  store ptr %0, ptr %3, align 8
  store i32 %1, ptr %4, align 4
  %5 = load ptr, ptr %3, align 8
  %6 = getelementptr inbounds %struct.Wlc_Ntk_t_, ptr %5, i32 0, i32 18
  %7 = load ptr, ptr %6, align 8
  %8 = load i32, ptr %4, align 4
  %9 = sext i32 %8 to i64
  %10 = getelementptr inbounds %struct.Wlc_Obj_t_, ptr %7, i64 %9
  ret ptr %10
}

; Function Attrs: nounwind uwtable
define internal i32 @Wlc_ObjLevelId(ptr noundef %0, i32 noundef %1) #0 {
  %3 = alloca ptr, align 8
  %4 = alloca i32, align 4
  store ptr %0, ptr %3, align 8
  store i32 %1, ptr %4, align 4
  %5 = load ptr, ptr %3, align 8
  %6 = getelementptr inbounds %struct.Wlc_Ntk_t_, ptr %5, i32 0, i32 32
  %7 = load i32, ptr %4, align 4
  %8 = call i32 @Vec_IntEntry(ptr noundef %6, i32 noundef %7)
  ret i32 %8
}

; Function Attrs: nounwind uwtable
define internal i32 @Vec_IntEntry(ptr noundef %0, i32 noundef %1) #0 {
  %3 = alloca ptr, align 8
  %4 = alloca i32, align 4
  store ptr %0, ptr %3, align 8
  store i32 %1, ptr %4, align 4
  %5 = load ptr, ptr %3, align 8
  %6 = getelementptr inbounds %struct.Vec_Int_t_, ptr %5, i32 0, i32 2
  %7 = load ptr, ptr %6, align 8
  %8 = load i32, ptr %4, align 4
  %9 = sext i32 %8 to i64
  %10 = getelementptr inbounds i32, ptr %7, i64 %9
  %11 = load i32, ptr %10, align 4
  ret i32 %11
}

; Function Attrs: nounwind uwtable
define internal i32 @Vec_IntSize(ptr noundef %0) #0 {
  %2 = alloca ptr, align 8
  store ptr %0, ptr %2, align 8
  %3 = load ptr, ptr %2, align 8
  %4 = getelementptr inbounds %struct.Vec_Int_t_, ptr %3, i32 0, i32 1
  %5 = load i32, ptr %4, align 4
  ret i32 %5
}

; Function Attrs: nounwind uwtable
define internal void @Vec_IntWriteEntry(ptr noundef %0, i32 noundef %1, i32 noundef %2) #0 {
  %4 = alloca ptr, align 8
  %5 = alloca i32, align 4
  %6 = alloca i32, align 4
  store ptr %0, ptr %4, align 8
  store i32 %1, ptr %5, align 4
  store i32 %2, ptr %6, align 4
  %7 = load i32, ptr %6, align 4
  %8 = load ptr, ptr %4, align 8
  %9 = getelementptr inbounds %struct.Vec_Int_t_, ptr %8, i32 0, i32 2
  %10 = load ptr, ptr %9, align 8
  %11 = load i32, ptr %5, align 4
  %12 = sext i32 %11 to i64
  %13 = getelementptr inbounds i32, ptr %10, i64 %12
  store i32 %7, ptr %13, align 4
  ret void
}

; Function Attrs: nounwind uwtable
define internal ptr @Vec_IntStart(i32 noundef %0) #0 {
  %2 = alloca i32, align 4
  %3 = alloca ptr, align 8
  store i32 %0, ptr %2, align 4
  %4 = load i32, ptr %2, align 4
  %5 = call ptr @Vec_IntAlloc(i32 noundef %4)
  store ptr %5, ptr %3, align 8
  %6 = load i32, ptr %2, align 4
  %7 = load ptr, ptr %3, align 8
  %8 = getelementptr inbounds %struct.Vec_Int_t_, ptr %7, i32 0, i32 1
  store i32 %6, ptr %8, align 4
  %9 = load ptr, ptr %3, align 8
  %10 = getelementptr inbounds %struct.Vec_Int_t_, ptr %9, i32 0, i32 2
  %11 = load ptr, ptr %10, align 8
  %12 = icmp ne ptr %11, null
  br i1 %12, label %13, label %20

13:                                               ; preds = %1
  %14 = load ptr, ptr %3, align 8
  %15 = getelementptr inbounds %struct.Vec_Int_t_, ptr %14, i32 0, i32 2
  %16 = load ptr, ptr %15, align 8
  %17 = load i32, ptr %2, align 4
  %18 = sext i32 %17 to i64
  %19 = mul i64 4, %18
  call void @llvm.memset.p0.i64(ptr align 4 %16, i8 0, i64 %19, i1 false)
  br label %20

20:                                               ; preds = %13, %1
  %21 = load ptr, ptr %3, align 8
  ret ptr %21
}

; Function Attrs: nounwind uwtable
define i32 @Wlc_NtkRemapLevels(ptr noundef %0, ptr noundef %1, i32 noundef %2) #0 {
  %4 = alloca ptr, align 8
  %5 = alloca ptr, align 8
  %6 = alloca i32, align 4
  %7 = alloca i32, align 4
  %8 = alloca i32, align 4
  %9 = alloca i32, align 4
  %10 = alloca i32, align 4
  %11 = alloca i32, align 4
  %12 = alloca i32, align 4
  %13 = alloca i32, align 4
  %14 = alloca ptr, align 8
  %15 = alloca ptr, align 8
  store ptr %0, ptr %4, align 8
  store ptr %1, ptr %5, align 8
  store i32 %2, ptr %6, align 4
  store i32 0, ptr %12, align 4
  %16 = load i32, ptr %6, align 4
  store i32 %16, ptr %13, align 4
  %17 = load i32, ptr %6, align 4
  %18 = add nsw i32 %17, 1
  %19 = call ptr @Vec_IntStart(i32 noundef %18)
  store ptr %19, ptr %14, align 8
  %20 = load i32, ptr %6, align 4
  %21 = add nsw i32 %20, 1
  %22 = call ptr @Vec_IntStart(i32 noundef %21)
  store ptr %22, ptr %15, align 8
  %23 = load ptr, ptr %15, align 8
  %24 = load i32, ptr %6, align 4
  call void @Vec_IntWriteEntry(ptr noundef %23, i32 noundef %24, i32 noundef 1)
  store i32 0, ptr %7, align 4
  br label %25

25:                                               ; preds = %69, %3
  %26 = load i32, ptr %7, align 4
  %27 = load ptr, ptr %5, align 8
  %28 = call i32 @Vec_IntSize(ptr noundef %27)
  %29 = icmp slt i32 %26, %28
  br i1 %29, label %30, label %34

30:                                               ; preds = %25
  %31 = load ptr, ptr %5, align 8
  %32 = load i32, ptr %7, align 4
  %33 = call i32 @Vec_IntEntry(ptr noundef %31, i32 noundef %32)
  store i32 %33, ptr %10, align 4
  br label %34

34:                                               ; preds = %30, %25
  %35 = phi i1 [ false, %25 ], [ true, %30 ]
  br i1 %35, label %36, label %72

36:                                               ; preds = %34
  %37 = load ptr, ptr %15, align 8
  %38 = load ptr, ptr %4, align 8
  %39 = load i32, ptr %10, align 4
  %40 = call i32 @Wlc_ObjLevelId(ptr noundef %38, i32 noundef %39)
  call void @Vec_IntWriteEntry(ptr noundef %37, i32 noundef %40, i32 noundef 1)
  store i32 0, ptr %8, align 4
  br label %41

41:                                               ; preds = %65, %36
  %42 = load i32, ptr %8, align 4
  %43 = load ptr, ptr %4, align 8
  %44 = load i32, ptr %10, align 4
  %45 = call ptr @Wlc_NtkObj(ptr noundef %43, i32 noundef %44)
  %46 = call i32 @Wlc_ObjFaninNum(ptr noundef %45)
  %47 = icmp slt i32 %42, %46
  br i1 %47, label %48, label %54

48:                                               ; preds = %41
  %49 = load ptr, ptr %4, align 8
  %50 = load i32, ptr %10, align 4
  %51 = call ptr @Wlc_NtkObj(ptr noundef %49, i32 noundef %50)
  %52 = load i32, ptr %8, align 4
  %53 = call i32 @Wlc_ObjFaninId(ptr noundef %51, i32 noundef %52)
  store i32 %53, ptr %9, align 4
  br label %54

54:                                               ; preds = %48, %41
  %55 = phi i1 [ false, %41 ], [ true, %48 ]
  br i1 %55, label %56, label %68

56:                                               ; preds = %54
  %57 = load i32, ptr %9, align 4
  %58 = icmp ne i32 %57, 0
  br i1 %58, label %59, label %64

59:                                               ; preds = %56
  %60 = load ptr, ptr %15, align 8
  %61 = load ptr, ptr %4, align 8
  %62 = load i32, ptr %9, align 4
  %63 = call i32 @Wlc_ObjLevelId(ptr noundef %61, i32 noundef %62)
  call void @Vec_IntWriteEntry(ptr noundef %60, i32 noundef %63, i32 noundef 1)
  br label %64

64:                                               ; preds = %59, %56
  br label %65

65:                                               ; preds = %64
  %66 = load i32, ptr %8, align 4
  %67 = add nsw i32 %66, 1
  store i32 %67, ptr %8, align 4
  br label %41, !llvm.loop !20

68:                                               ; preds = %54
  br label %69

69:                                               ; preds = %68
  %70 = load i32, ptr %7, align 4
  %71 = add nsw i32 %70, 1
  store i32 %71, ptr %7, align 4
  br label %25, !llvm.loop !21

72:                                               ; preds = %34
  store i32 0, ptr %7, align 4
  br label %73

73:                                               ; preds = %93, %72
  %74 = load i32, ptr %7, align 4
  %75 = load ptr, ptr %15, align 8
  %76 = call i32 @Vec_IntSize(ptr noundef %75)
  %77 = icmp slt i32 %74, %76
  br i1 %77, label %78, label %82

78:                                               ; preds = %73
  %79 = load ptr, ptr %15, align 8
  %80 = load i32, ptr %7, align 4
  %81 = call i32 @Vec_IntEntry(ptr noundef %79, i32 noundef %80)
  store i32 %81, ptr %11, align 4
  br label %82

82:                                               ; preds = %78, %73
  %83 = phi i1 [ false, %73 ], [ true, %78 ]
  br i1 %83, label %84, label %96

84:                                               ; preds = %82
  %85 = load i32, ptr %11, align 4
  %86 = icmp ne i32 %85, 0
  br i1 %86, label %87, label %92

87:                                               ; preds = %84
  %88 = load ptr, ptr %14, align 8
  %89 = load i32, ptr %7, align 4
  %90 = load i32, ptr %12, align 4
  %91 = add nsw i32 %90, 1
  store i32 %91, ptr %12, align 4
  call void @Vec_IntWriteEntry(ptr noundef %88, i32 noundef %89, i32 noundef %90)
  br label %92

92:                                               ; preds = %87, %84
  br label %93

93:                                               ; preds = %92
  %94 = load i32, ptr %7, align 4
  %95 = add nsw i32 %94, 1
  store i32 %95, ptr %7, align 4
  br label %73, !llvm.loop !22

96:                                               ; preds = %82
  store i32 0, ptr %7, align 4
  br label %97

97:                                               ; preds = %127, %96
  %98 = load i32, ptr %7, align 4
  %99 = load ptr, ptr %4, align 8
  %100 = getelementptr inbounds %struct.Wlc_Ntk_t_, ptr %99, i32 0, i32 32
  %101 = call i32 @Vec_IntSize(ptr noundef %100)
  %102 = icmp slt i32 %98, %101
  br i1 %102, label %103, label %108

103:                                              ; preds = %97
  %104 = load ptr, ptr %4, align 8
  %105 = getelementptr inbounds %struct.Wlc_Ntk_t_, ptr %104, i32 0, i32 32
  %106 = load i32, ptr %7, align 4
  %107 = call i32 @Vec_IntEntry(ptr noundef %105, i32 noundef %106)
  store i32 %107, ptr %12, align 4
  br label %108

108:                                              ; preds = %103, %97
  %109 = phi i1 [ false, %97 ], [ true, %103 ]
  br i1 %109, label %110, label %130

110:                                              ; preds = %108
  %111 = load ptr, ptr %15, align 8
  %112 = load i32, ptr %12, align 4
  %113 = call i32 @Vec_IntEntry(ptr noundef %111, i32 noundef %112)
  %114 = icmp ne i32 %113, 0
  br i1 %114, label %115, label %122

115:                                              ; preds = %110
  %116 = load ptr, ptr %4, align 8
  %117 = getelementptr inbounds %struct.Wlc_Ntk_t_, ptr %116, i32 0, i32 32
  %118 = load i32, ptr %7, align 4
  %119 = load ptr, ptr %14, align 8
  %120 = load i32, ptr %12, align 4
  %121 = call i32 @Vec_IntEntry(ptr noundef %119, i32 noundef %120)
  call void @Vec_IntWriteEntry(ptr noundef %117, i32 noundef %118, i32 noundef %121)
  br label %126

122:                                              ; preds = %110
  %123 = load ptr, ptr %4, align 8
  %124 = getelementptr inbounds %struct.Wlc_Ntk_t_, ptr %123, i32 0, i32 32
  %125 = load i32, ptr %7, align 4
  call void @Vec_IntWriteEntry(ptr noundef %124, i32 noundef %125, i32 noundef -1)
  br label %126

126:                                              ; preds = %122, %115
  br label %127

127:                                              ; preds = %126
  %128 = load i32, ptr %7, align 4
  %129 = add nsw i32 %128, 1
  store i32 %129, ptr %7, align 4
  br label %97, !llvm.loop !23

130:                                              ; preds = %108
  %131 = load ptr, ptr %14, align 8
  %132 = load i32, ptr %6, align 4
  %133 = call i32 @Vec_IntEntry(ptr noundef %131, i32 noundef %132)
  store i32 %133, ptr %13, align 4
  %134 = load ptr, ptr %15, align 8
  call void @Vec_IntFree(ptr noundef %134)
  %135 = load ptr, ptr %14, align 8
  call void @Vec_IntFree(ptr noundef %135)
  %136 = load i32, ptr %13, align 4
  ret i32 %136
}