; Function Attrs: nounwind uwtable
define i32 @Wlc_NtkRemapLevels(ptr noundef readonly captures(none) %0, ptr noundef readonly captures(none) %1, i32 noundef %2) local_unnamed_addr #3 {
Vec_IntAlloc.exit.i:
  %3 = add nsw i32 %2, 1
  %or.cond.i.i = icmp ult i32 %2, 15
  %spec.store.select.i.i = select i1 %or.cond.i.i, i32 16, i32 %3
  %.not.i.i = icmp ne i32 %spec.store.select.i.i, 0
  tail call void @llvm.assume(i1 %.not.i.i)
  %4 = sext i32 %spec.store.select.i.i to i64
  %5 = shl nsw i64 %4, 2
  %6 = tail call noalias ptr @malloc(i64 noundef %5) #26
  %.not.i = icmp eq ptr %6, null
  br i1 %.not.i, label %Vec_IntAlloc.exit.i84, label %7

7:                                                ; preds = %Vec_IntAlloc.exit.i
  %8 = sext i32 %3 to i64
  %9 = shl nsw i64 %8, 2
  tail call void @llvm.memset.p0.i64(ptr nonnull align 4 %6, i8 0, i64 %9, i1 false)
  br label %Vec_IntAlloc.exit.i84

Vec_IntAlloc.exit.i84:                            ; preds = %Vec_IntAlloc.exit.i, %7
  %10 = tail call noalias ptr @malloc(i64 noundef %5) #26
  %.not.i85 = icmp ne ptr %10, null
  tail call void @llvm.assume(i1 %.not.i85)
  %11 = sext i32 %3 to i64
  %12 = shl nsw i64 %11, 2
  tail call void @llvm.memset.p0.i64(ptr nonnull align 4 %10, i8 0, i64 %12, i1 false)
  %13 = sext i32 %2 to i64
  %14 = getelementptr inbounds i32, ptr %10, i64 %13
  store i32 1, ptr %14, align 4
  %15 = getelementptr i8, ptr %1, i64 4
  %.val6395 = load i32, ptr %15, align 4
  %16 = icmp sgt i32 %.val6395, 0
  br i1 %16, label %.lr.ph97, label %.critedge.preheader

.lr.ph97:                                         ; preds = %Vec_IntAlloc.exit.i84
  %17 = getelementptr i8, ptr %1, i64 8
  %18 = getelementptr i8, ptr %0, i64 792
  %19 = getelementptr i8, ptr %0, i64 640
  %.val64.pre = load ptr, ptr %17, align 8
  %.val74.pre = load ptr, ptr %18, align 8
  %.val7191.pre = load ptr, ptr %19, align 8
  %20 = zext nneg i32 %.val6395 to i64
  br label %22

.critedge.preheader:                              ; preds = %.critedge2, %Vec_IntAlloc.exit.i84
  %21 = icmp sgt i32 %2, -1
  br i1 %21, label %.lr.ph100, label %.critedge4.preheader

.lr.ph100:                                        ; preds = %.critedge.preheader
  %wide.trip.count = zext nneg i32 %3 to i64
  br label %59

22:                                               ; preds = %.lr.ph97, %.critedge2
  %indvars.iv105 = phi i64 [ 0, %.lr.ph97 ], [ %indvars.iv.next106, %.critedge2 ]
  %23 = getelementptr inbounds nuw i32, ptr %.val64.pre, i64 %indvars.iv105
  %24 = load i32, ptr %23, align 4
  %25 = sext i32 %24 to i64
  %26 = getelementptr inbounds i32, ptr %.val74.pre, i64 %25
  %27 = load i32, ptr %26, align 4
  %28 = sext i32 %27 to i64
  %29 = getelementptr inbounds i32, ptr %10, i64 %28
  store i32 1, ptr %29, align 4
  %30 = getelementptr inbounds %struct.Wlc_Obj_t_, ptr %.val7191.pre, i64 %25
  %31 = getelementptr i8, ptr %30, i64 4
  %.val7292 = load i32, ptr %31, align 4
  %32 = icmp sgt i32 %.val7292, 0
  br i1 %32, label %.lr.ph.preheader, label %.critedge2

.lr.ph.preheader:                                 ; preds = %22
  %33 = getelementptr inbounds %struct.Wlc_Obj_t_, ptr %.val7191.pre, i64 %25, i32 4
  %34 = getelementptr inbounds %struct.Wlc_Obj_t_, ptr %.val7191.pre, i64 %25, i32 4
  %35 = getelementptr inbounds %struct.Wlc_Obj_t_, ptr %.val7191.pre, i64 %25
  %36 = getelementptr i8, ptr %35, i64 4
  %.val72 = load i32, ptr %36, align 4
  %37 = sext i32 %.val72 to i64
  br label %.lr.ph

.lr.ph:                                           ; preds = %.lr.ph.preheader, %53
  %indvars.iv = phi i64 [ 0, %.lr.ph.preheader ], [ %indvars.iv.next, %53 ]
  %.val7294 = phi i32 [ %.val7292, %.lr.ph.preheader ], [ %.val72, %53 ]
  %38 = phi ptr [ %30, %.lr.ph.preheader ], [ %35, %53 ]
  %39 = icmp ugt i32 %.val7294, 2
  br i1 %39, label %Wlc_ObjHasArray.exit.thread.i.i, label %40

40:                                               ; preds = %.lr.ph
  %41 = load i16, ptr %38, align 8
  %42 = and i16 %41, 63
  switch i16 %42, label %Wlc_ObjFaninId.exit [
    i16 6, label %Wlc_ObjHasArray.exit.thread.i.i
    i16 22, label %Wlc_ObjHasArray.exit.thread.i.i
  ]

Wlc_ObjHasArray.exit.thread.i.i:                  ; preds = %40, %40, %.lr.ph
  %43 = load ptr, ptr %34, align 8
  br label %Wlc_ObjFaninId.exit

Wlc_ObjFaninId.exit:                              ; preds = %40, %Wlc_ObjHasArray.exit.thread.i.i
  %44 = phi ptr [ %43, %Wlc_ObjHasArray.exit.thread.i.i ], [ %33, %40 ]
  %45 = getelementptr inbounds nuw i32, ptr %44, i64 %indvars.iv
  %46 = load i32, ptr %45, align 4
  %.not61 = icmp eq i32 %46, 0
  br i1 %.not61, label %53, label %47

47:                                               ; preds = %Wlc_ObjFaninId.exit
  %48 = sext i32 %46 to i64
  %49 = getelementptr inbounds i32, ptr %.val74.pre, i64 %48
  %50 = load i32, ptr %49, align 4
  %51 = sext i32 %50 to i64
  %52 = getelementptr inbounds i32, ptr %10, i64 %51
  store i32 1, ptr %52, align 4
  br label %53

53:                                               ; preds = %Wlc_ObjFaninId.exit, %47
  %indvars.iv.next = add nuw nsw i64 %indvars.iv, 1
  %54 = icmp slt i64 %indvars.iv.next, %37
  br i1 %54, label %.lr.ph, label %.critedge2, !llvm.loop !20

.critedge2:                                       ; preds = %53, %22
  %indvars.iv.next106 = add nuw nsw i64 %indvars.iv105, 1
  %55 = icmp samesign ult i64 %indvars.iv.next106, %20
  br i1 %55, label %22, label %.critedge.preheader, !llvm.loop !21

.critedge4.preheader:                             ; preds = %.critedge, %.critedge.preheader
  %56 = getelementptr i8, ptr %0, i64 788
  %.val101 = load i32, ptr %56, align 4
  %57 = icmp sgt i32 %.val101, 0
  br i1 %57, label %.lr.ph103, label %.critedge6.thread

.lr.ph103:                                        ; preds = %.critedge4.preheader
  %58 = getelementptr i8, ptr %0, i64 792
  br label %65

59:                                               ; preds = %.lr.ph100, %.critedge
  %indvars.iv108 = phi i64 [ 0, %.lr.ph100 ], [ %indvars.iv.next109, %.critedge ]
  %.05798 = phi i32 [ 0, %.lr.ph100 ], [ %.158, %.critedge ]
  %60 = getelementptr inbounds nuw i32, ptr %10, i64 %indvars.iv108
  %61 = load i32, ptr %60, align 4
  %.not60 = icmp eq i32 %61, 0
  br i1 %.not60, label %.critedge, label %62

62:                                               ; preds = %59
  %63 = add nsw i32 %.05798, 1
  %64 = getelementptr inbounds nuw i32, ptr %6, i64 %indvars.iv108
  store i32 %.05798, ptr %64, align 4
  br label %.critedge

.critedge:                                        ; preds = %59, %62
  %.158 = phi i32 [ %63, %62 ], [ %.05798, %59 ]
  %indvars.iv.next109 = add nuw nsw i64 %indvars.iv108, 1
  %exitcond.not = icmp eq i64 %indvars.iv.next109, %wide.trip.count
  br i1 %exitcond.not, label %.critedge4.preheader, label %59, !llvm.loop !22

65:                                               ; preds = %.lr.ph103, %.critedge4
  %indvars.iv111 = phi i64 [ 0, %.lr.ph103 ], [ %indvars.iv.next112, %.critedge4 ]
  %.val66 = load ptr, ptr %58, align 8
  %66 = getelementptr inbounds nuw i32, ptr %.val66, i64 %indvars.iv111
  %67 = load i32, ptr %66, align 4
  %68 = sext i32 %67 to i64
  %69 = getelementptr inbounds i32, ptr %10, i64 %68
  %70 = load i32, ptr %69, align 4
  %.not = icmp eq i32 %70, 0
  br i1 %.not, label %.critedge4, label %71

71:                                               ; preds = %65
  %72 = getelementptr inbounds i32, ptr %6, i64 %68
  %73 = load i32, ptr %72, align 4
  br label %.critedge4

.critedge4:                                       ; preds = %65, %71
  %storemerge = phi i32 [ %73, %71 ], [ -1, %65 ]
  store i32 %storemerge, ptr %66, align 4
  %indvars.iv.next112 = add nuw nsw i64 %indvars.iv111, 1
  %.val = load i32, ptr %56, align 4
  %74 = sext i32 %.val to i64
  %75 = icmp slt i64 %indvars.iv.next112, %74
  br i1 %75, label %65, label %.critedge6.thread, !llvm.loop !23

.critedge6.thread:                                ; preds = %.critedge4, %.critedge4.preheader
  %.in = getelementptr inbounds i32, ptr %6, i64 %13
  %76 = load i32, ptr %.in, align 4
  tail call void @free(ptr noundef nonnull %10) #25
  tail call void @free(ptr noundef nonnull %6) #25
  ret i32 %76
}